; Function Attrs: inlinehint mustprogress nounwind willreturn uwtable
define internal fastcc void @Vec_StrPush(ptr noundef captures(none) %0, i8 noundef signext %1) unnamed_addr #7 {
  %3 = getelementptr inbounds nuw i8, ptr %0, i64 4
  %4 = load i32, ptr %3, align 4, !tbaa !18
  %5 = load i32, ptr %0, align 8, !tbaa !20
  %6 = icmp eq i32 %4, %5
  br i1 %6, label %7, label %.Vec_StrGrow.exit10_crit_edge

.Vec_StrGrow.exit10_crit_edge:                    ; preds = %2
  %.phi.trans.insert = getelementptr inbounds nuw i8, ptr %0, i64 8
  %.pre = load ptr, ptr %.phi.trans.insert, align 8, !tbaa !21
  br label %Vec_StrGrow.exit10

7:                                                ; preds = %2
  %8 = icmp slt i32 %4, 16
  br i1 %8, label %9, label %17

9:                                                ; preds = %7
  %10 = getelementptr inbounds nuw i8, ptr %0, i64 8
  %11 = load ptr, ptr %10, align 8, !tbaa !21
  %.not9.i = icmp eq ptr %11, null
  br i1 %.not9.i, label %14, label %12

12:                                               ; preds = %9
  %13 = tail call dereferenceable_or_null(16) ptr @realloc(ptr noundef nonnull %11, i64 noundef 16) #17
  br label %Vec_StrGrow.exit

14:                                               ; preds = %9
  %15 = tail call noalias dereferenceable_or_null(16) ptr @malloc(i64 noundef 16) #18
  br label %Vec_StrGrow.exit

Vec_StrGrow.exit:                                 ; preds = %12, %14
  %16 = phi ptr [ %13, %12 ], [ %15, %14 ]
  store ptr %16, ptr %10, align 8, !tbaa !21
  store i32 16, ptr %0, align 8, !tbaa !20
  br label %Vec_StrGrow.exit10

17:                                               ; preds = %7
  %18 = shl nuw nsw i32 %4, 1
  %19 = getelementptr inbounds nuw i8, ptr %0, i64 8
  %20 = load ptr, ptr %19, align 8, !tbaa !21
  %.not9.i9 = icmp eq ptr %20, null
  %21 = zext nneg i32 %18 to i64
  br i1 %.not9.i9, label %24, label %22

22:                                               ; preds = %17
  %23 = tail call ptr @realloc(ptr noundef nonnull %20, i64 noundef %21) #17
  br label %26

24:                                               ; preds = %17
  %25 = tail call noalias ptr @malloc(i64 noundef %21) #18
  br label %26

26:                                               ; preds = %24, %22
  %27 = phi ptr [ %23, %22 ], [ %25, %24 ]
  store ptr %27, ptr %19, align 8, !tbaa !21
  store i32 %18, ptr %0, align 8, !tbaa !20
  br label %Vec_StrGrow.exit10

Vec_StrGrow.exit10:                               ; preds = %.Vec_StrGrow.exit10_crit_edge, %26, %Vec_StrGrow.exit
  %28 = phi ptr [ %.pre, %.Vec_StrGrow.exit10_crit_edge ], [ %27, %26 ], [ %16, %Vec_StrGrow.exit ]
  %29 = load i32, ptr %3, align 4, !tbaa !18
  %30 = add nsw i32 %29, 1
  store i32 %30, ptr %3, align 4, !tbaa !18
  %31 = sext i32 %29 to i64
  %32 = getelementptr inbounds i8, ptr %28, i64 %31
  store i8 %1, ptr %32, align 1, !tbaa !15
  ret void
}